target datalayout = "e-m:e-p270:32:32-p271:32:32-p272:64:64-i64:64-i128:128-f80:128-n8:16:32:64-S128"
target triple = "x86_64-pc-linux-gnu"

%struct.luaL_Buffer = type { ptr, i32, ptr, [8192 x i8] }

@luaT_typenames = internal constant [11 x ptr] [ptr @.str.22, ptr @.str.23, ptr @.str.24, ptr @.str.25, ptr @.str.26, ptr @.str.27, ptr @.str.28, ptr @.str.24, ptr @.str.29, ptr @.str.30, ptr @.str.31], align 16
@.str.133 = private unnamed_addr constant [9 x i8] c"no value\00", align 1

; Function Attrs: nounwind uwtable
define internal ptr @lua_typename(ptr noundef %0, i32 noundef %1) #0 {
  %3 = alloca ptr, align 8
  %4 = alloca i32, align 4
  store ptr %0, ptr %3, align 8, !tbaa !11
  store i32 %1, ptr %4, align 4, !tbaa !4
  %5 = load i32, ptr %4, align 4, !tbaa !4
  %6 = icmp eq i32 %5, -1
  br i1 %6, label %7, label %8

7:                                                ; preds = %2
  br label %13

8:                                                ; preds = %2
  %9 = load i32, ptr %4, align 4, !tbaa !4
  %10 = sext i32 %9 to i64
  %11 = getelementptr inbounds [11 x ptr], ptr @luaT_typenames, i64 0, i64 %10
  %12 = load ptr, ptr %11, align 8, !tbaa !13
  br label %13

13:                                               ; preds = %8, %7
  %14 = phi ptr [ @.str.133, %7 ], [ %12, %8 ]
  ret ptr %14
}

; Function Attrs: nounwind uwtable
define internal void @tag_error(ptr noundef %0, i32 noundef %1, i32 noundef %2) #0 {
  %4 = alloca ptr, align 8
  %5 = alloca i32, align 4
  %6 = alloca i32, align 4
  store ptr %0, ptr %4, align 8, !tbaa !11
  store i32 %1, ptr %5, align 4, !tbaa !4
  store i32 %2, ptr %6, align 4, !tbaa !4
  %7 = load ptr, ptr %4, align 8, !tbaa !11
  %8 = load i32, ptr %5, align 4, !tbaa !4
  %9 = load ptr, ptr %4, align 8, !tbaa !11
  %10 = load i32, ptr %6, align 4, !tbaa !4
  %11 = call ptr @lua_typename(ptr noundef %9, i32 noundef %10)
  %12 = call i32 @luaL_typerror(ptr noundef %7, i32 noundef %8, ptr noundef %11)
  ret void
}

; Function Attrs: nounwind uwtable
define internal void @luaL_pushresult(ptr noundef %0) #0 {
  %2 = alloca ptr, align 8
  store ptr %0, ptr %2, align 8, !tbaa !430
  %3 = load ptr, ptr %2, align 8, !tbaa !430
  %4 = call i32 @emptybuffer(ptr noundef %3)
  %5 = load ptr, ptr %2, align 8, !tbaa !430
  %6 = getelementptr inbounds nuw %struct.luaL_Buffer, ptr %5, i32 0, i32 2
  %7 = load ptr, ptr %6, align 8, !tbaa !432
  %8 = load ptr, ptr %2, align 8, !tbaa !430
  %9 = getelementptr inbounds nuw %struct.luaL_Buffer, ptr %8, i32 0, i32 1
  %10 = load i32, ptr %9, align 8, !tbaa !435
  call void @lua_concat(ptr noundef %7, i32 noundef %10)
  %11 = load ptr, ptr %2, align 8, !tbaa !430
  %12 = getelementptr inbounds nuw %struct.luaL_Buffer, ptr %11, i32 0, i32 1
  store i32 1, ptr %12, align 8, !tbaa !435
  ret void
}

; Function Attrs: nounwind uwtable
define internal ptr @luaL_prepbuffer(ptr noundef %0) #0 {
  %2 = alloca ptr, align 8
  store ptr %0, ptr %2, align 8, !tbaa !430
  %3 = load ptr, ptr %2, align 8, !tbaa !430
  %4 = call i32 @emptybuffer(ptr noundef %3)
  %5 = icmp ne i32 %4, 0
  br i1 %5, label %6, label %8

6:                                                ; preds = %1
  %7 = load ptr, ptr %2, align 8, !tbaa !430
  call void @adjuststack(ptr noundef %7)
  br label %8

8:                                                ; preds = %6, %1
  %9 = load ptr, ptr %2, align 8, !tbaa !430
  %10 = getelementptr inbounds nuw %struct.luaL_Buffer, ptr %9, i32 0, i32 3
  %11 = getelementptr inbounds [8192 x i8], ptr %10, i64 0, i64 0
  ret ptr %11
}

; Function Attrs: nounwind uwtable
define internal void @luaL_buffinit(ptr noundef %0, ptr noundef %1) #0 {
  %3 = alloca ptr, align 8
  %4 = alloca ptr, align 8
  store ptr %0, ptr %3, align 8, !tbaa !11
  store ptr %1, ptr %4, align 8, !tbaa !430
  %5 = load ptr, ptr %3, align 8, !tbaa !11
  %6 = load ptr, ptr %4, align 8, !tbaa !430
  %7 = getelementptr inbounds nuw %struct.luaL_Buffer, ptr %6, i32 0, i32 2
  store ptr %5, ptr %7, align 8, !tbaa !432
  %8 = load ptr, ptr %4, align 8, !tbaa !430
  %9 = getelementptr inbounds nuw %struct.luaL_Buffer, ptr %8, i32 0, i32 3
  %10 = getelementptr inbounds [8192 x i8], ptr %9, i64 0, i64 0
  %11 = load ptr, ptr %4, align 8, !tbaa !430
  %12 = getelementptr inbounds nuw %struct.luaL_Buffer, ptr %11, i32 0, i32 0
  store ptr %10, ptr %12, align 8, !tbaa !434
  %13 = load ptr, ptr %4, align 8, !tbaa !430
  %14 = getelementptr inbounds nuw %struct.luaL_Buffer, ptr %13, i32 0, i32 1
  store i32 0, ptr %14, align 8, !tbaa !435
  ret void
}

; Function Attrs: nounwind uwtable
define internal ptr @luaL_checklstring(ptr noundef %0, i32 noundef %1, ptr noundef %2) #0 {
  %4 = alloca ptr, align 8
  %5 = alloca i32, align 4
  %6 = alloca ptr, align 8
  %7 = alloca ptr, align 8
  store ptr %0, ptr %4, align 8, !tbaa !11
  store i32 %1, ptr %5, align 4, !tbaa !4
  store ptr %2, ptr %6, align 8, !tbaa !61
  call void @llvm.lifetime.start.p0(i64 8, ptr %7) #14
  %8 = load ptr, ptr %4, align 8, !tbaa !11
  %9 = load i32, ptr %5, align 4, !tbaa !4
  %10 = load ptr, ptr %6, align 8, !tbaa !61
  %11 = call ptr @lua_tolstring(ptr noundef %8, i32 noundef %9, ptr noundef %10)
  store ptr %11, ptr %7, align 8, !tbaa !13
  %12 = load ptr, ptr %7, align 8, !tbaa !13
  %13 = icmp ne ptr %12, null
  br i1 %13, label %17, label %14

14:                                               ; preds = %3
  %15 = load ptr, ptr %4, align 8, !tbaa !11
  %16 = load i32, ptr %5, align 4, !tbaa !4
  call void @tag_error(ptr noundef %15, i32 noundef %16, i32 noundef 4)
  br label %17

17:                                               ; preds = %14, %3
  %18 = load ptr, ptr %7, align 8, !tbaa !13
  call void @llvm.lifetime.end.p0(i64 8, ptr %7) #14
  ret ptr %18
}

; Function Attrs: nounwind uwtable
define internal i32 @str_upper(ptr noundef %0) #0 {
  %2 = alloca ptr, align 8
  %3 = alloca i64, align 8
  %4 = alloca i64, align 8
  %5 = alloca %struct.luaL_Buffer, align 8
  %6 = alloca ptr, align 8
  %7 = alloca i32, align 4
  %8 = alloca i32, align 4
  store ptr %0, ptr %2, align 8, !tbaa !11
  call void @llvm.lifetime.start.p0(i64 8, ptr %3) #14
  call void @llvm.lifetime.start.p0(i64 8, ptr %4) #14
  call void @llvm.lifetime.start.p0(i64 8216, ptr %5) #14
  call void @llvm.lifetime.start.p0(i64 8, ptr %6) #14
  %9 = load ptr, ptr %2, align 8, !tbaa !11
  %10 = call ptr @luaL_checklstring(ptr noundef %9, i32 noundef 1, ptr noundef %3)
  store ptr %10, ptr %6, align 8, !tbaa !13
  %11 = load ptr, ptr %2, align 8, !tbaa !11
  call void @luaL_buffinit(ptr noundef %11, ptr noundef %5)
  store i64 0, ptr %4, align 8, !tbaa !53
  br label %12

12:                                               ; preds = %42, %1
  %13 = load i64, ptr %4, align 8, !tbaa !53
  %14 = load i64, ptr %3, align 8, !tbaa !53
  %15 = icmp ult i64 %13, %14
  br i1 %15, label %16, label %45

16:                                               ; preds = %12
  %17 = getelementptr inbounds nuw %struct.luaL_Buffer, ptr %5, i32 0, i32 0
  %18 = load ptr, ptr %17, align 8, !tbaa !434
  %19 = getelementptr inbounds nuw %struct.luaL_Buffer, ptr %5, i32 0, i32 3
  %20 = getelementptr inbounds [8192 x i8], ptr %19, i64 0, i64 0
  %21 = getelementptr inbounds i8, ptr %20, i64 8192
  %22 = icmp ult ptr %18, %21
  br i1 %22, label %25, label %23

23:                                               ; preds = %16
  %24 = call ptr @luaL_prepbuffer(ptr noundef %5)
  br label %25

25:                                               ; preds = %23, %16
  call void @llvm.lifetime.start.p0(i64 4, ptr %7) #14
  %26 = call ptr @__ctype_toupper_loc() #19
  %27 = load ptr, ptr %26, align 8, !tbaa !183
  %28 = load ptr, ptr %6, align 8, !tbaa !13
  %29 = load i64, ptr %4, align 8, !tbaa !53
  %30 = getelementptr inbounds nuw i8, ptr %28, i64 %29
  %31 = load i8, ptr %30, align 1, !tbaa !45
  %32 = zext i8 %31 to i32
  %33 = sext i32 %32 to i64
  %34 = getelementptr inbounds i32, ptr %27, i64 %33
  %35 = load i32, ptr %34, align 4, !tbaa !4
  store i32 %35, ptr %7, align 4, !tbaa !4
  %36 = load i32, ptr %7, align 4, !tbaa !4
  store i32 %36, ptr %8, align 4, !tbaa !4
  call void @llvm.lifetime.end.p0(i64 4, ptr %7) #14
  %37 = load i32, ptr %8, align 4, !tbaa !4
  %38 = trunc i32 %37 to i8
  %39 = getelementptr inbounds nuw %struct.luaL_Buffer, ptr %5, i32 0, i32 0
  %40 = load ptr, ptr %39, align 8, !tbaa !434
  %41 = getelementptr inbounds nuw i8, ptr %40, i32 1
  store ptr %41, ptr %39, align 8, !tbaa !434
  store i8 %38, ptr %40, align 1, !tbaa !45
  br label %42

42:                                               ; preds = %25
  %43 = load i64, ptr %4, align 8, !tbaa !53
  %44 = add i64 %43, 1
  store i64 %44, ptr %4, align 8, !tbaa !53
  br label %12, !llvm.loop !457

45:                                               ; preds = %12
  call void @luaL_pushresult(ptr noundef %5)
  call void @llvm.lifetime.end.p0(i64 8, ptr %6) #14
  call void @llvm.lifetime.end.p0(i64 8216, ptr %5) #14
  call void @llvm.lifetime.end.p0(i64 8, ptr %4) #14
  call void @llvm.lifetime.end.p0(i64 8, ptr %3) #14
  ret i32 1
}