; Function Attrs: nounwind uwtable
define internal noundef i32 @str_upper(ptr noundef %0) #0 {
  %2 = alloca i64, align 8
  %3 = alloca %struct.luaL_Buffer, align 8
  call void @llvm.lifetime.start.p0(i64 8, ptr nonnull %2) #35
  call void @llvm.lifetime.start.p0(i64 8216, ptr nonnull %3) #35
  %4 = call fastcc ptr @lua_tolstring(ptr noundef %0, i32 noundef 1, ptr noundef nonnull %2)
  %.not.i = icmp eq ptr %4, null
  br i1 %.not.i, label %5, label %luaL_checklstring.exit

5:                                                ; preds = %1
  call fastcc void @luaL_typerror(ptr noundef %0, i32 noundef 1, ptr noundef nonnull @.str.26)
  unreachable

luaL_checklstring.exit:                           ; preds = %1
  %6 = getelementptr inbounds nuw i8, ptr %3, i64 16
  store ptr %0, ptr %6, align 8, !tbaa !378
  %7 = getelementptr inbounds nuw i8, ptr %3, i64 24
  store ptr %7, ptr %3, align 8, !tbaa !380
  %8 = getelementptr inbounds nuw i8, ptr %3, i64 8
  store i32 0, ptr %8, align 8, !tbaa !381
  %9 = load i64, ptr %2, align 8, !tbaa !111
  %.not = icmp eq i64 %9, 0
  br i1 %.not, label %._crit_edge, label %.lr.ph

.lr.ph:                                           ; preds = %luaL_checklstring.exit
  %10 = getelementptr inbounds nuw i8, ptr %3, i64 8216
  br label %11

11:                                               ; preds = %.lr.ph, %luaL_prepbuffer.exit
  %.08 = phi i64 [ 0, %.lr.ph ], [ %27, %luaL_prepbuffer.exit ]
  %12 = load ptr, ptr %3, align 8, !tbaa !380
  %13 = icmp ult ptr %12, %10
  br i1 %13, label %luaL_prepbuffer.exit, label %14

14:                                               ; preds = %11
  %15 = call fastcc i32 @emptybuffer(ptr noundef nonnull %3)
  %.not.i7 = icmp eq i32 %15, 0
  br i1 %.not.i7, label %luaL_prepbuffer.exit, label %16

16:                                               ; preds = %14
  call fastcc void @adjuststack(ptr noundef nonnull %3)
  br label %luaL_prepbuffer.exit

luaL_prepbuffer.exit:                             ; preds = %16, %14, %11
  %17 = tail call ptr @__ctype_toupper_loc() #42
  %18 = load ptr, ptr %17, align 8, !tbaa !403
  %19 = getelementptr inbounds nuw i8, ptr %4, i64 %.08
  %20 = load i8, ptr %19, align 1, !tbaa !46
  %21 = zext i8 %20 to i64
  %22 = getelementptr inbounds nuw i32, ptr %18, i64 %21
  %23 = load i32, ptr %22, align 4, !tbaa !150
  %24 = trunc i32 %23 to i8
  %25 = load ptr, ptr %3, align 8, !tbaa !380
  %26 = getelementptr inbounds nuw i8, ptr %25, i64 1
  store ptr %26, ptr %3, align 8, !tbaa !380
  store i8 %24, ptr %25, align 1, !tbaa !46
  %27 = add nuw i64 %.08, 1
  %28 = load i64, ptr %2, align 8, !tbaa !111
  %29 = icmp ult i64 %27, %28
  br i1 %29, label %11, label %._crit_edge, !llvm.loop !407

._crit_edge:                                      ; preds = %luaL_prepbuffer.exit, %luaL_checklstring.exit
  %30 = call fastcc i32 @emptybuffer(ptr noundef nonnull %3)
  %31 = load ptr, ptr %6, align 8, !tbaa !378
  %32 = load i32, ptr %8, align 8, !tbaa !381
  call fastcc void @lua_concat(ptr noundef %31, i32 noundef %32)
  call void @llvm.lifetime.end.p0(i64 8216, ptr nonnull %3) #35
  call void @llvm.lifetime.end.p0(i64 8, ptr nonnull %2) #35
  ret i32 1
}